target datalayout = "e-m:e-p270:32:32-p271:32:32-p272:64:64-i64:64-i128:128-f80:128-n8:16:32:64-S128"
target triple = "x86_64-pc-linux-gnu"

%struct.MPVEncContext = type { %struct.MpegEncContext, %struct.PutBitContext, i32, i32, ptr, i32, i32, i32, i32, i32, i32, i32, i32, ptr, ptr, %struct.FDCTDSPContext, %struct.MpegvideoEncDSPContext, %struct.PixblockDSPContext, %struct.MotionEstContext, i32, i32, ptr, ptr, ptr, ptr, ptr, ptr, [2 x [2 x [2 x ptr]]], [2 x ptr], [2 x [2 x ptr]], ptr, ptr, ptr, ptr, [3 x i64], i32, i32, i32, i32, i32, ptr, ptr, ptr, ptr, ptr, ptr, ptr, [12 x i32], ptr, ptr, ptr, ptr, ptr, ptr, ptr, ptr, [2 x i32], ptr, i32, i32, i32, i32, i32, i32, i32, i32, i32, i32, ptr, ptr, i32, i32, %struct.PutBitContext, %struct.PutBitContext, i32, i32, i32, i32, ptr, ptr, ptr, [2 x ptr], [2 x ptr], [2 x ptr], [2 x ptr], ptr, i32 }
%struct.MpegEncContext = type { ptr, i32, i32, i32, [12 x i32], i32, %struct.ScanTable, %struct.ScanTable, [64 x i8], [64 x i8], ptr, ptr, i32, i32, i32, i32, i32, i32, i32, i32, i32, i32, i32, i32, i32, i32, i32, i32, i32, i32, i32, i32, i64, i64, ptr, %struct.BufferPoolContext, i32, i32, %union.anon.2, i32, %struct.MPVWorkPicture, %struct.MPVWorkPicture, %struct.MPVWorkPicture, i32, [3 x i32], ptr, [3 x ptr], ptr, ptr, ptr, ptr, ptr, ptr, [3 x ptr], i32, ptr, ptr, ptr, ptr, %struct.ScratchpadContext, i32, i32, i32, i32, i32, i32, %struct.BlockDSPContext, %struct.H264ChromaContext, %struct.HpelDSPContext, %struct.IDCTDSPContext, %struct.QpelDSPContext, %struct.VideoDSPContext, %struct.H263DSPContext, ptr, [2 x [2 x ptr]], i32, i32, [2 x [4 x [2 x i32]]], [2 x [2 x i32]], [2 x [2 x [2 x i32]]], [2 x [64 x i16]], i32, i32, i32, i32, i32, [6 x i32], [6 x i32], [3 x ptr], ptr, [64 x i16], [64 x i16], [64 x i16], [64 x i16], i32, i32, %struct.GetBitContext, i32, i32, i32, i32, i32, i32, i32, i32, i32, i32, i32, i32, i32, i32, i32, i64, i64, i16, i16, i16, i16, i32, i32, i32, i32, i32, i32, i32, i32, i32, [3 x i32], i32, i32, i32, i32, i32, i32, %struct.GetBitContext, i32, [2 x [2 x i32]], i32, i32, i32, i32, i32, i32, i32, i32, i32, i32, i32, i32, i32, i32, [2 x i32], i32, i32, ptr, ptr, ptr, ptr, ptr, i32, i32, %struct.ERContext }
%struct.ScanTable = type { ptr, [64 x i8], [64 x i8] }
%struct.BufferPoolContext = type { ptr, ptr, ptr, ptr, ptr, i32, i32, i32 }
%union.anon.2 = type { [32 x ptr] }
%struct.MPVWorkPicture = type { [3 x ptr], [3 x i64], ptr, ptr, [2 x ptr], ptr, ptr, [2 x ptr], i32 }
%struct.ScratchpadContext = type { ptr, ptr, %union.anon.3, i32 }
%union.anon.3 = type { ptr }
%struct.BlockDSPContext = type { ptr, ptr, [2 x ptr] }
%struct.H264ChromaContext = type { [4 x ptr], [4 x ptr] }
%struct.HpelDSPContext = type { [4 x [4 x ptr]], [4 x [4 x ptr]], [4 x [4 x ptr]], [4 x ptr] }
%struct.IDCTDSPContext = type { ptr, ptr, ptr, ptr, ptr, ptr, [64 x i8], i32, i32 }
%struct.QpelDSPContext = type { [2 x [16 x ptr]], [2 x [16 x ptr]], [2 x [16 x ptr]] }
%struct.VideoDSPContext = type { ptr, ptr }
%struct.H263DSPContext = type { ptr, ptr }
%struct.GetBitContext = type { ptr, ptr, i32, i32, i32 }
%struct.ERContext = type { ptr, ptr, i32, ptr, i32, i32, i32, i64, i64, i32, i32, ptr, ptr, [3 x ptr], ptr, ptr, [2 x [4 x [2 x i32]]], %struct.ERPicture, %struct.ERPicture, %struct.ERPicture, [2 x ptr], [2 x ptr], i16, i16, i32, i32, ptr, ptr }
%struct.ERPicture = type { ptr, ptr, ptr, [2 x ptr], [2 x ptr], ptr, i32 }
%struct.FDCTDSPContext = type { ptr, ptr }
%struct.MpegvideoEncDSPContext = type { ptr, ptr, ptr, ptr, [4 x ptr], ptr }
%struct.PixblockDSPContext = type { ptr, ptr, ptr, ptr }
%struct.MotionEstContext = type { ptr, i32, i32, [4 x [2 x i32]], [4 x [2 x i32]], ptr, ptr, i32, i32, i32, i32, i32, i32, i32, i32, i32, i32, i32, i32, i32, i32, i32, i32, [4 x [4 x ptr]], [4 x [4 x ptr]], i32, i32, i64, i64, i32, [6 x ptr], [6 x ptr], [6 x ptr], [6 x ptr], [2 x [4 x ptr]], ptr, ptr, ptr, ptr, ptr, ptr, ptr, ptr, [64 x i32], [64 x i32] }
%struct.PutBitContext = type { i32, i32, ptr, ptr, ptr }

; Function Attrs: nounwind uwtable
define internal i32 @dnxhd_10bit_dct_quantize(ptr noundef %0, ptr noundef %1, i32 noundef %2, i32 noundef %3, ptr noundef %4) #1 {
  %6 = alloca ptr, align 8
  %7 = alloca ptr, align 8
  %8 = alloca i32, align 4
  %9 = alloca i32, align 4
  %10 = alloca ptr, align 8
  %11 = alloca ptr, align 8
  %12 = alloca ptr, align 8
  %13 = alloca i32, align 4
  %14 = alloca i32, align 4
  %15 = alloca i32, align 4
  %16 = alloca i32, align 4
  %17 = alloca i32, align 4
  store ptr %0, ptr %6, align 8, !tbaa !121
  store ptr %1, ptr %7, align 8, !tbaa !123
  store i32 %2, ptr %8, align 4, !tbaa !93
  store i32 %3, ptr %9, align 4, !tbaa !93
  store ptr %4, ptr %10, align 8, !tbaa !108
  call void @llvm.lifetime.start.p0(i64 8, ptr %11) #10
  %18 = load ptr, ptr %6, align 8, !tbaa !121
  %19 = getelementptr inbounds nuw %struct.MPVEncContext, ptr %18, i32 0, i32 0
  %20 = getelementptr inbounds nuw %struct.MpegEncContext, ptr %19, i32 0, i32 7
  %21 = getelementptr inbounds nuw %struct.ScanTable, ptr %20, i32 0, i32 0
  %22 = load ptr, ptr %21, align 8, !tbaa !124
  store ptr %22, ptr %11, align 8, !tbaa !111
  call void @llvm.lifetime.start.p0(i64 8, ptr %12) #10
  %23 = load i32, ptr %8, align 4, !tbaa !93
  %24 = icmp slt i32 %23, 4
  br i1 %24, label %25, label %33

25:                                               ; preds = %5
  %26 = load ptr, ptr %6, align 8, !tbaa !121
  %27 = getelementptr inbounds nuw %struct.MPVEncContext, ptr %26, i32 0, i32 48
  %28 = load ptr, ptr %27, align 8, !tbaa !127
  %29 = load i32, ptr %9, align 4, !tbaa !93
  %30 = sext i32 %29 to i64
  %31 = getelementptr inbounds [64 x i32], ptr %28, i64 %30
  %32 = getelementptr inbounds [64 x i32], ptr %31, i64 0, i64 0
  br label %41

33:                                               ; preds = %5
  %34 = load ptr, ptr %6, align 8, !tbaa !121
  %35 = getelementptr inbounds nuw %struct.MPVEncContext, ptr %34, i32 0, i32 49
  %36 = load ptr, ptr %35, align 8, !tbaa !128
  %37 = load i32, ptr %9, align 4, !tbaa !93
  %38 = sext i32 %37 to i64
  %39 = getelementptr inbounds [64 x i32], ptr %36, i64 %38
  %40 = getelementptr inbounds [64 x i32], ptr %39, i64 0, i64 0
  br label %41

41:                                               ; preds = %33, %25
  %42 = phi ptr [ %32, %25 ], [ %40, %33 ]
  store ptr %42, ptr %12, align 8, !tbaa !108
  call void @llvm.lifetime.start.p0(i64 4, ptr %13) #10
  store i32 0, ptr %13, align 4, !tbaa !93
  call void @llvm.lifetime.start.p0(i64 4, ptr %14) #10
  %43 = load ptr, ptr %6, align 8, !tbaa !121
  %44 = getelementptr inbounds nuw %struct.MPVEncContext, ptr %43, i32 0, i32 15
  %45 = getelementptr inbounds nuw %struct.FDCTDSPContext, ptr %44, i32 0, i32 0
  %46 = load ptr, ptr %45, align 8, !tbaa !125
  %47 = load ptr, ptr %7, align 8, !tbaa !123
  call void %46(ptr noundef %47)
  %48 = load ptr, ptr %7, align 8, !tbaa !123
  %49 = getelementptr inbounds i16, ptr %48, i64 0
  %50 = load i16, ptr %49, align 2, !tbaa !126
  %51 = sext i16 %50 to i32
  %52 = add nsw i32 %51, 2
  %53 = ashr i32 %52, 2
  %54 = trunc i32 %53 to i16
  %55 = load ptr, ptr %7, align 8, !tbaa !123
  %56 = getelementptr inbounds i16, ptr %55, i64 0
  store i16 %54, ptr %56, align 2, !tbaa !126
  store i32 1, ptr %14, align 4, !tbaa !93
  br label %57

57:                                               ; preds = %107, %41
  %58 = load i32, ptr %14, align 4, !tbaa !93
  %59 = icmp slt i32 %58, 64
  br i1 %59, label %60, label %110

60:                                               ; preds = %57
  call void @llvm.lifetime.start.p0(i64 4, ptr %15) #10
  %61 = load ptr, ptr %11, align 8, !tbaa !111
  %62 = load i32, ptr %14, align 4, !tbaa !93
  %63 = sext i32 %62 to i64
  %64 = getelementptr inbounds i8, ptr %61, i64 %63
  %65 = load i8, ptr %64, align 1, !tbaa !116
  %66 = zext i8 %65 to i32
  store i32 %66, ptr %15, align 4, !tbaa !93
  call void @llvm.lifetime.start.p0(i64 4, ptr %16) #10
  %67 = load ptr, ptr %7, align 8, !tbaa !123
  %68 = load i32, ptr %15, align 4, !tbaa !93
  %69 = sext i32 %68 to i64
  %70 = getelementptr inbounds i16, ptr %67, i64 %69
  %71 = load i16, ptr %70, align 2, !tbaa !126
  %72 = sext i16 %71 to i32
  %73 = ashr i32 %72, 15
  store i32 %73, ptr %16, align 4, !tbaa !93
  call void @llvm.lifetime.start.p0(i64 4, ptr %17) #10
  %74 = load ptr, ptr %7, align 8, !tbaa !123
  %75 = load i32, ptr %15, align 4, !tbaa !93
  %76 = sext i32 %75 to i64
  %77 = getelementptr inbounds i16, ptr %74, i64 %76
  %78 = load i16, ptr %77, align 2, !tbaa !126
  %79 = sext i16 %78 to i32
  %80 = load i32, ptr %16, align 4, !tbaa !93
  %81 = xor i32 %79, %80
  %82 = load i32, ptr %16, align 4, !tbaa !93
  %83 = sub nsw i32 %81, %82
  store i32 %83, ptr %17, align 4, !tbaa !93
  %84 = load i32, ptr %17, align 4, !tbaa !93
  %85 = load ptr, ptr %12, align 8, !tbaa !108
  %86 = load i32, ptr %15, align 4, !tbaa !93
  %87 = sext i32 %86 to i64
  %88 = getelementptr inbounds i32, ptr %85, i64 %87
  %89 = load i32, ptr %88, align 4, !tbaa !93
  %90 = mul nsw i32 %84, %89
  %91 = ashr i32 %90, 18
  store i32 %91, ptr %17, align 4, !tbaa !93
  %92 = load i32, ptr %17, align 4, !tbaa !93
  %93 = load i32, ptr %16, align 4, !tbaa !93
  %94 = xor i32 %92, %93
  %95 = load i32, ptr %16, align 4, !tbaa !93
  %96 = sub nsw i32 %94, %95
  %97 = trunc i32 %96 to i16
  %98 = load ptr, ptr %7, align 8, !tbaa !123
  %99 = load i32, ptr %15, align 4, !tbaa !93
  %100 = sext i32 %99 to i64
  %101 = getelementptr inbounds i16, ptr %98, i64 %100
  store i16 %97, ptr %101, align 2, !tbaa !126
  %102 = load i32, ptr %17, align 4, !tbaa !93
  %103 = icmp ne i32 %102, 0
  br i1 %103, label %104, label %106

104:                                              ; preds = %60
  %105 = load i32, ptr %14, align 4, !tbaa !93
  store i32 %105, ptr %13, align 4, !tbaa !93
  br label %106

106:                                              ; preds = %104, %60
  call void @llvm.lifetime.end.p0(i64 4, ptr %17) #10
  call void @llvm.lifetime.end.p0(i64 4, ptr %16) #10
  call void @llvm.lifetime.end.p0(i64 4, ptr %15) #10
  br label %107

107:                                              ; preds = %106
  %108 = load i32, ptr %14, align 4, !tbaa !93
  %109 = add nsw i32 %108, 1
  store i32 %109, ptr %14, align 4, !tbaa !93
  br label %57, !llvm.loop !135

110:                                              ; preds = %57
  %111 = load ptr, ptr %6, align 8, !tbaa !121
  %112 = getelementptr inbounds nuw %struct.MPVEncContext, ptr %111, i32 0, i32 0
  %113 = getelementptr inbounds nuw %struct.MpegEncContext, ptr %112, i32 0, i32 69
  %114 = getelementptr inbounds nuw %struct.IDCTDSPContext, ptr %113, i32 0, i32 7
  %115 = load i32, ptr %114, align 8, !tbaa !133
  %116 = icmp ne i32 %115, 0
  br i1 %116, label %117, label %126

117:                                              ; preds = %110
  %118 = load ptr, ptr %7, align 8, !tbaa !123
  %119 = load ptr, ptr %6, align 8, !tbaa !121
  %120 = getelementptr inbounds nuw %struct.MPVEncContext, ptr %119, i32 0, i32 0
  %121 = getelementptr inbounds nuw %struct.MpegEncContext, ptr %120, i32 0, i32 69
  %122 = getelementptr inbounds nuw %struct.IDCTDSPContext, ptr %121, i32 0, i32 6
  %123 = getelementptr inbounds [64 x i8], ptr %122, i64 0, i64 0
  %124 = load ptr, ptr %11, align 8, !tbaa !111
  %125 = load i32, ptr %13, align 4, !tbaa !93
  call void @ff_block_permute(ptr noundef %118, ptr noundef %123, ptr noundef %124, i32 noundef %125)
  br label %126

126:                                              ; preds = %117, %110
  %127 = load i32, ptr %13, align 4, !tbaa !93
  call void @llvm.lifetime.end.p0(i64 4, ptr %14) #10
  call void @llvm.lifetime.end.p0(i64 4, ptr %13) #10
  call void @llvm.lifetime.end.p0(i64 8, ptr %12) #10
  call void @llvm.lifetime.end.p0(i64 8, ptr %11) #10
  ret i32 %127
}