; Function Attrs: nounwind uwtable
define internal i32 @dnxhd_10bit_dct_quantize(ptr noundef %0, ptr noundef %1, i32 noundef %2, i32 noundef %3, ptr readnone captures(none) %4) #1 {
  %6 = getelementptr inbounds nuw i8, ptr %0, i64 208
  %7 = load ptr, ptr %6, align 8, !tbaa !154
  %8 = icmp slt i32 %2, 4
  %9 = sext i32 %3 to i64
  %. = select i1 %8, i64 6656, i64 6664
  %10 = getelementptr inbounds nuw i8, ptr %0, i64 %.
  %11 = load ptr, ptr %10, align 8, !tbaa !157
  %12 = getelementptr inbounds [64 x i32], ptr %11, i64 %9
  %13 = getelementptr inbounds nuw i8, ptr %0, i64 4904
  %14 = load ptr, ptr %13, align 8, !tbaa !155
  tail call void %14(ptr noundef %1) #11
  %15 = load i16, ptr %1, align 2, !tbaa !156
  %16 = sext i16 %15 to i32
  %17 = add nsw i32 %16, 2
  %18 = lshr i32 %17, 2
  %19 = trunc i32 %18 to i16
  store i16 %19, ptr %1, align 2, !tbaa !156
  br label %20

20:                                               ; preds = %5, %20
  %indvars.iv = phi i64 [ 1, %5 ], [ %indvars.iv.next, %20 ]
  %.038 = phi i32 [ 0, %5 ], [ %spec.select, %20 ]
  %21 = getelementptr inbounds nuw i8, ptr %7, i64 %indvars.iv
  %22 = load i8, ptr %21, align 1, !tbaa !118
  %23 = zext i8 %22 to i64
  %24 = getelementptr inbounds nuw i16, ptr %1, i64 %23
  %25 = load i16, ptr %24, align 2, !tbaa !156
  %26 = sext i16 %25 to i32
  %27 = ashr i32 %26, 15
  %28 = xor i32 %27, %26
  %29 = sub nsw i32 %28, %27
  %30 = getelementptr inbounds nuw i32, ptr %12, i64 %23
  %31 = load i32, ptr %30, align 4, !tbaa !104
  %32 = mul nsw i32 %29, %31
  %33 = ashr i32 %32, 18
  %34 = xor i32 %33, %27
  %35 = sub nsw i32 %34, %27
  %36 = trunc nsw i32 %35 to i16
  store i16 %36, ptr %24, align 2, !tbaa !156
  %.not36 = icmp ult i32 %32, 262144
  %37 = trunc nuw nsw i64 %indvars.iv to i32
  %spec.select = select i1 %.not36, i32 %.038, i32 %37
  %indvars.iv.next = add nuw nsw i64 %indvars.iv, 1
  %exitcond.not = icmp eq i64 %indvars.iv.next, 64
  br i1 %exitcond.not, label %38, label %20, !llvm.loop !163

38:                                               ; preds = %20
  %39 = getelementptr inbounds nuw i8, ptr %0, i64 2120
  %40 = load i32, ptr %39, align 8, !tbaa !162
  %.not = icmp eq i32 %40, 0
  br i1 %.not, label %43, label %41

41:                                               ; preds = %38
  %42 = getelementptr inbounds nuw i8, ptr %0, i64 2056
  tail call void @ff_block_permute(ptr noundef nonnull %1, ptr noundef nonnull %42, ptr noundef nonnull %7, i32 noundef %spec.select) #11
  br label %43

43:                                               ; preds = %41, %38
  ret i32 %spec.select
}